target datalayout = "e-m:e-p270:32:32-p271:32:32-p272:64:64-i64:64-i128:128-f80:128-n8:16:32:64-S128"
target triple = "x86_64-pc-linux-gnu"

%"class.sls::plugin" = type <{ ptr, ptr, ptr, i32, [4 x i8] }>
%class.svector.2 = type { %class.vector.3 }
%class.vector.3 = type { ptr }
%class.svector.17 = type { %class.vector.18 }
%class.vector.18 = type { ptr }
%"class.sat::literal" = type { i32 }
%"class.sls::context" = type <{ ptr, ptr, %class.scoped_ptr_vector, %class.indexed_uint_set, %class.indexed_uint_set, %class.ref_vector, %class.svector.17, %class.params_ref, %class.vector.30, %class.svector.31, %class.svector.31, %class.indexed_uint_set, %class.random_gen, i8, i8, i8, i8, %class.ref_vector, %class.ref_vector, %class.ptr_vector.28, %"struct.sls::context::greater_depth", %"struct.sls::context::less_depth", %class.heap, %class.heap.33, %class.uint_set, %class.ref_vector, %"struct.sls::context::stats", [4 x i8], %class.ref_vector, i8, [7 x i8] }>
%class.scoped_ptr_vector = type { %class.ptr_vector.26 }
%class.ptr_vector.26 = type { %class.vector.27 }
%class.vector.27 = type { ptr }
%class.params_ref = type { ptr }
%class.vector.30 = type { ptr }
%class.svector.31 = type { %class.vector.32 }
%class.vector.32 = type { ptr }
%class.indexed_uint_set = type { i32, %class.svector.17, %class.svector.17 }
%class.random_gen = type { i32 }
%class.ptr_vector.28 = type { %class.vector.29 }
%class.vector.29 = type { ptr }
%"struct.sls::context::greater_depth" = type { ptr }
%"struct.sls::context::less_depth" = type { ptr }
%class.heap = type { %"struct.sls::context::greater_depth", %class.svector.2, %class.svector.2 }
%class.heap.33 = type { %"struct.sls::context::less_depth", %class.svector.2, %class.svector.2 }
%class.uint_set = type { %class.svector.17 }
%"struct.sls::context::stats" = type { i32, i32, i32 }
%class.ref_vector = type { %class.ref_vector_core }
%class.ref_vector_core = type { %class.ref_manager_wrapper, %class.ptr_vector.28 }
%class.ref_manager_wrapper = type { ptr }

; Function Attrs: mustprogress uwtable
define linkonce_odr hidden void @_ZN3sls7context4flipEj(ptr noundef nonnull align 8 dereferenceable(321) %0, i32 noundef %1) #4 comdat align 2 {
  %3 = alloca ptr, align 8
  %4 = alloca i32, align 4
  store ptr %0, ptr %3, align 8, !tbaa !103
  store i32 %1, ptr %4, align 4, !tbaa !107
  %5 = load ptr, ptr %3, align 8
  %6 = getelementptr inbounds nuw %"class.sls::context", ptr %5, i32 0, i32 1
  %7 = load ptr, ptr %6, align 8, !tbaa !113
  %8 = load i32, ptr %4, align 4, !tbaa !107
  %9 = load ptr, ptr %7, align 8, !tbaa !140
  %10 = getelementptr inbounds ptr, ptr %9, i64 5
  %11 = load ptr, ptr %10, align 8
  call void %11(ptr noundef nonnull align 8 dereferenceable(8) %7, i32 noundef %8)
  ret void
}

; Function Attrs: mustprogress nounwind uwtable
define linkonce_odr hidden noundef i32 @_ZNK3sat7literal3varEv(ptr noundef nonnull align 4 dereferenceable(4) %0) #5 comdat align 2 {
  %2 = alloca ptr, align 8
  store ptr %0, ptr %2, align 8, !tbaa !142
  %3 = load ptr, ptr %2, align 8
  %4 = getelementptr inbounds nuw %"class.sat::literal", ptr %3, i32 0, i32 0
  %5 = load i32, ptr %4, align 4, !tbaa !143
  %6 = lshr i32 %5, 1
  ret i32 %6
}

; Function Attrs: mustprogress uwtable
define linkonce_odr hidden noundef zeroext i1 @_ZN3sls7context7is_trueEN3sat7literalE(ptr noundef nonnull align 8 dereferenceable(321) %0, i32 %1) #4 comdat align 2 {
  %3 = alloca %"class.sat::literal", align 4
  %4 = alloca ptr, align 8
  %5 = alloca %"class.sat::literal", align 4
  %6 = getelementptr inbounds nuw %"class.sat::literal", ptr %3, i32 0, i32 0
  store i32 %1, ptr %6, align 4
  store ptr %0, ptr %4, align 8, !tbaa !103
  %7 = load ptr, ptr %4, align 8
  %8 = getelementptr inbounds nuw %"class.sls::context", ptr %7, i32 0, i32 1
  %9 = load ptr, ptr %8, align 8, !tbaa !113
  call void @llvm.memcpy.p0.p0.i64(ptr align 4 %5, ptr align 4 %3, i64 4, i1 false), !tbaa.struct !106
  %10 = getelementptr inbounds nuw %"class.sat::literal", ptr %5, i32 0, i32 0
  %11 = load i32, ptr %10, align 4
  %12 = load ptr, ptr %9, align 8, !tbaa !140
  %13 = getelementptr inbounds ptr, ptr %12, i64 10
  %14 = load ptr, ptr %13, align 8
  %15 = call noundef zeroext i1 %14(ptr noundef nonnull align 8 dereferenceable(8) %9, i32 %11)
  ret i1 %15
}

; Function Attrs: mustprogress uwtable
define hidden noundef zeroext i1 @_ZN3sls12basic_plugin9set_valueEP4exprb(ptr noundef nonnull align 8 dereferenceable(56) %0, ptr noundef %1, i1 noundef zeroext %2) #4 align 2 {
  %4 = alloca ptr, align 8
  %5 = alloca ptr, align 8
  %6 = alloca i8, align 1
  %7 = alloca %"class.sat::literal", align 4
  %8 = alloca %"class.sat::literal", align 4
  store ptr %0, ptr %4, align 8, !tbaa !3
  store ptr %1, ptr %5, align 8, !tbaa !8
  %9 = zext i1 %2 to i8
  store i8 %9, ptr %6, align 1, !tbaa !16
  %10 = load ptr, ptr %4, align 8
  call void @llvm.lifetime.start.p0(i64 4, ptr %7) #3
  %11 = getelementptr inbounds nuw %"class.sls::plugin", ptr %10, i32 0, i32 1
  %12 = load ptr, ptr %11, align 8, !tbaa !87
  %13 = load ptr, ptr %5, align 8, !tbaa !8
  %14 = call i32 @_ZN3sls7context10mk_literalEP4expr(ptr noundef nonnull align 8 dereferenceable(321) %12, ptr noundef %13)
  %15 = getelementptr inbounds nuw %"class.sat::literal", ptr %7, i32 0, i32 0
  store i32 %14, ptr %15, align 4
  %16 = getelementptr inbounds nuw %"class.sls::plugin", ptr %10, i32 0, i32 1
  %17 = load ptr, ptr %16, align 8, !tbaa !87
  call void @llvm.memcpy.p0.p0.i64(ptr align 4 %8, ptr align 4 %7, i64 4, i1 false), !tbaa.struct !106
  %18 = getelementptr inbounds nuw %"class.sat::literal", ptr %8, i32 0, i32 0
  %19 = load i32, ptr %18, align 4
  %20 = call noundef zeroext i1 @_ZN3sls7context7is_trueEN3sat7literalE(ptr noundef nonnull align 8 dereferenceable(321) %17, i32 %19)
  %21 = zext i1 %20 to i32
  %22 = load i8, ptr %6, align 1, !tbaa !16, !range !18, !noundef !19
  %23 = trunc i8 %22 to i1
  %24 = zext i1 %23 to i32
  %25 = icmp ne i32 %21, %24
  br i1 %25, label %26, label %33

26:                                               ; preds = %3
  %27 = getelementptr inbounds nuw %"class.sls::plugin", ptr %10, i32 0, i32 1
  %28 = load ptr, ptr %27, align 8, !tbaa !87
  %29 = call noundef i32 @_ZNK3sat7literal3varEv(ptr noundef nonnull align 4 dereferenceable(4) %7)
  call void @_ZN3sls7context4flipEj(ptr noundef nonnull align 8 dereferenceable(321) %28, i32 noundef %29)
  %30 = getelementptr inbounds nuw %"class.sls::plugin", ptr %10, i32 0, i32 1
  %31 = load ptr, ptr %30, align 8, !tbaa !87
  %32 = load ptr, ptr %5, align 8, !tbaa !8
  call void @_ZN3sls7context12new_value_ehEP4expr(ptr noundef nonnull align 8 dereferenceable(321) %31, ptr noundef %32)
  br label %33

33:                                               ; preds = %26, %3
  call void @llvm.lifetime.end.p0(i64 4, ptr %7) #3
  ret i1 true
}