; Function Attrs: mustprogress uwtable
define hidden noundef zeroext i1 @_ZN3sls12basic_plugin9set_valueEP4exprb(ptr noundef nonnull readonly align 8 captures(none) dereferenceable(56) %0, ptr noundef %1, i1 noundef zeroext %2) local_unnamed_addr #3 align 2 {
  %4 = getelementptr inbounds nuw i8, ptr %0, i64 8
  %5 = load ptr, ptr %4, align 8, !tbaa !11
  %6 = tail call i32 @_ZN3sls7context10mk_literalEP4expr(ptr noundef nonnull align 8 dereferenceable(321) %5, ptr noundef %1)
  %7 = load ptr, ptr %4, align 8, !tbaa !11
  %8 = getelementptr inbounds nuw i8, ptr %7, i64 8
  %9 = load ptr, ptr %8, align 8, !tbaa !101
  %10 = load ptr, ptr %9, align 8, !tbaa !129
  %11 = getelementptr inbounds nuw i8, ptr %10, i64 80
  %12 = load ptr, ptr %11, align 8
  %13 = tail call noundef zeroext i1 %12(ptr noundef nonnull align 8 dereferenceable(8) %9, i32 %6)
  %14 = xor i1 %2, %13
  br i1 %14, label %15, label %24

15:                                               ; preds = %3
  %16 = load ptr, ptr %4, align 8, !tbaa !11
  %17 = lshr i32 %6, 1
  %18 = getelementptr inbounds nuw i8, ptr %16, i64 8
  %19 = load ptr, ptr %18, align 8, !tbaa !101
  %20 = load ptr, ptr %19, align 8, !tbaa !129
  %21 = getelementptr inbounds nuw i8, ptr %20, i64 40
  %22 = load ptr, ptr %21, align 8
  tail call void %22(ptr noundef nonnull align 8 dereferenceable(8) %19, i32 noundef %17)
  %23 = load ptr, ptr %4, align 8, !tbaa !11
  tail call void @_ZN3sls7context12new_value_ehEP4expr(ptr noundef nonnull align 8 dereferenceable(321) %23, ptr noundef %1)
  br label %24

24:                                               ; preds = %15, %3
  ret i1 true
}